; Function Attrs: mustprogress uwtable
define internal void @_ZN7rocksdb12_GLOBAL__N_111SkipListRep8Iterator4SeekERKNS_5SliceEPKc(ptr noundef nonnull align 8 dereferenceable(56) %this, ptr noundef nonnull align 8 dereferenceable(16) %user_key, ptr noundef %memtable_key) unnamed_addr #3 align 2 {
entry:
  %key_decoded.i.i2 = alloca %"class.rocksdb::Slice", align 8
  %key_decoded.i.i = alloca %"class.rocksdb::Slice", align 8
  %cmp.not = icmp eq ptr %memtable_key, null
  %iter_2 = getelementptr inbounds i8, ptr %this, i64 8
  br i1 %cmp.not, label %if.else, label %if.then

if.then:                                          ; preds = %entry
  %0 = load ptr, ptr %iter_2, align 8
  call void @llvm.lifetime.start.p0(i64 16, ptr nonnull %key_decoded.i.i)
  %head_.i.i = getelementptr inbounds i8, ptr %0, i64 24
  %1 = load ptr, ptr %head_.i.i, align 8
  %max_height_.i.i.i = getelementptr inbounds i8, ptr %0, i64 32
  %2 = load atomic i32, ptr %max_height_.i.i.i monotonic, align 4
  %sub.i.i = add nsw i32 %2, -1
  %compare_.i.i = getelementptr inbounds i8, ptr %0, i64 16
  %3 = load ptr, ptr %compare_.i.i, align 8
  %vtable.i.i = load ptr, ptr %3, align 8
  %4 = load ptr, ptr %vtable.i.i, align 8
  %call2.i.i = tail call { ptr, i64 } %4(ptr noundef nonnull align 8 dereferenceable(8) %3, ptr noundef nonnull %memtable_key)
  %5 = extractvalue { ptr, i64 } %call2.i.i, 0
  store ptr %5, ptr %key_decoded.i.i, align 8
  %6 = getelementptr inbounds i8, ptr %key_decoded.i.i, i64 8
  %7 = extractvalue { ptr, i64 } %call2.i.i, 1
  store i64 %7, ptr %6, align 8
  br label %while.body.i.i

while.body.i.i:                                   ; preds = %if.else.i.i, %if.then
  %last_bigger.0.i.i = phi ptr [ null, %if.then ], [ %last_bigger.1.i.i, %if.else.i.i ]
  %level.0.i.i = phi i32 [ %sub.i.i, %if.then ], [ %level.1.i.i, %if.else.i.i ]
  %x.0.i.i = phi ptr [ %1, %if.then ], [ %x.1.i.i, %if.else.i.i ]
  %idx.ext.i.i.i = sext i32 %level.0.i.i to i64
  %idx.neg.i.i.i = sub nsw i64 0, %idx.ext.i.i.i
  %add.ptr.i.i.i = getelementptr inbounds %"struct.std::atomic.29", ptr %x.0.i.i, i64 %idx.neg.i.i.i
  %8 = load atomic i64, ptr %add.ptr.i.i.i acquire, align 8
  %atomic-temp.i.0.i.i.i.i = inttoptr i64 %8 to ptr
  %cond14.i.i = icmp eq i64 %8, 0
  br i1 %cond14.i.i, label %lor.lhs.false14.i.i, label %if.then.i.i

if.then.i.i:                                      ; preds = %while.body.i.i
  %add.ptr.i17.i.i = getelementptr inbounds %"struct.std::atomic.29", ptr %atomic-temp.i.0.i.i.i.i, i64 %idx.neg.i.i.i
  %9 = load atomic i64, ptr %add.ptr.i17.i.i acquire, align 8
  %atomic-temp.i.0.i.i18.i.i = inttoptr i64 %9 to ptr
  call void @llvm.prefetch.p0(ptr %atomic-temp.i.0.i.i18.i.i, i32 0, i32 1, i32 1)
  %cmp7.i.i = icmp eq ptr %last_bigger.0.i.i, %atomic-temp.i.0.i.i.i.i
  br i1 %cmp7.i.i, label %lor.lhs.false14.i.i, label %cond.end.i.i

cond.end.i.i:                                     ; preds = %if.then.i.i
  %10 = load ptr, ptr %compare_.i.i, align 8
  %arrayidx.i.i.i = getelementptr inbounds i8, ptr %atomic-temp.i.0.i.i.i.i, i64 8
  %vtable10.i.i = load ptr, ptr %10, align 8
  %vfn11.i.i = getelementptr inbounds i8, ptr %vtable10.i.i, i64 16
  %11 = load ptr, ptr %vfn11.i.i, align 8
  %call12.i.i = call noundef i32 %11(ptr noundef nonnull align 8 dereferenceable(8) %10, ptr noundef nonnull %arrayidx.i.i.i, ptr noundef nonnull align 8 dereferenceable(16) %key_decoded.i.i)
  %cmp13.i.i = icmp eq i32 %call12.i.i, 0
  br i1 %cmp13.i.i, label %_ZN7rocksdb14InlineSkipListIRKNS_11MemTableRep13KeyComparatorEE8Iterator4SeekEPKc.exit, label %lor.lhs.false14.i.i

lor.lhs.false14.i.i:                              ; preds = %cond.end.i.i, %if.then.i.i, %while.body.i.i
  %cond21.i.i = phi i32 [ %call12.i.i, %cond.end.i.i ], [ 1, %if.then.i.i ], [ 1, %while.body.i.i ]
  %cmp15.i.i = icmp sgt i32 %cond21.i.i, 0
  %cmp16.i.i = icmp eq i32 %level.0.i.i, 0
  %or.cond.i.i = and i1 %cmp16.i.i, %cmp15.i.i
  br i1 %or.cond.i.i, label %_ZN7rocksdb14InlineSkipListIRKNS_11MemTableRep13KeyComparatorEE8Iterator4SeekEPKc.exit, label %if.else.i.i

if.else.i.i:                                      ; preds = %lor.lhs.false14.i.i
  %cmp18.i.i = icmp sgt i32 %cond21.i.i, -1
  %last_bigger.1.i.i = select i1 %cmp18.i.i, ptr %atomic-temp.i.0.i.i.i.i, ptr %last_bigger.0.i.i
  %dec.i.i = sext i1 %cmp18.i.i to i32
  %level.1.i.i = add nsw i32 %level.0.i.i, %dec.i.i
  %x.1.i.i = select i1 %cmp18.i.i, ptr %x.0.i.i, ptr %atomic-temp.i.0.i.i.i.i
  br label %while.body.i.i, !llvm.loop !11

_ZN7rocksdb14InlineSkipListIRKNS_11MemTableRep13KeyComparatorEE8Iterator4SeekEPKc.exit: ; preds = %cond.end.i.i, %lor.lhs.false14.i.i
  call void @llvm.lifetime.end.p0(i64 16, ptr nonnull %key_decoded.i.i)
  br label %if.end

if.else:                                          ; preds = %entry
  %tmp_ = getelementptr inbounds i8, ptr %this, i64 24
  %call = tail call noundef ptr @_ZN7rocksdb9EncodeKeyEPNSt7__cxx1112basic_stringIcSt11char_traitsIcESaIcEEERKNS_5SliceE(ptr noundef nonnull %tmp_, ptr noundef nonnull align 8 dereferenceable(16) %user_key)
  %12 = load ptr, ptr %iter_2, align 8
  call void @llvm.lifetime.start.p0(i64 16, ptr nonnull %key_decoded.i.i2)
  %head_.i.i3 = getelementptr inbounds i8, ptr %12, i64 24
  %13 = load ptr, ptr %head_.i.i3, align 8
  %max_height_.i.i.i4 = getelementptr inbounds i8, ptr %12, i64 32
  %14 = load atomic i32, ptr %max_height_.i.i.i4 monotonic, align 4
  %sub.i.i5 = add nsw i32 %14, -1
  %compare_.i.i6 = getelementptr inbounds i8, ptr %12, i64 16
  %15 = load ptr, ptr %compare_.i.i6, align 8
  %vtable.i.i7 = load ptr, ptr %15, align 8
  %16 = load ptr, ptr %vtable.i.i7, align 8
  %call2.i.i8 = tail call { ptr, i64 } %16(ptr noundef nonnull align 8 dereferenceable(8) %15, ptr noundef %call)
  %17 = extractvalue { ptr, i64 } %call2.i.i8, 0
  store ptr %17, ptr %key_decoded.i.i2, align 8
  %18 = getelementptr inbounds i8, ptr %key_decoded.i.i2, i64 8
  %19 = extractvalue { ptr, i64 } %call2.i.i8, 1
  store i64 %19, ptr %18, align 8
  br label %while.body.i.i9

while.body.i.i9:                                  ; preds = %if.else.i.i33, %if.else
  %last_bigger.0.i.i10 = phi ptr [ null, %if.else ], [ %last_bigger.1.i.i35, %if.else.i.i33 ]
  %level.0.i.i11 = phi i32 [ %sub.i.i5, %if.else ], [ %level.1.i.i37, %if.else.i.i33 ]
  %x.0.i.i12 = phi ptr [ %13, %if.else ], [ %x.1.i.i38, %if.else.i.i33 ]
  %idx.ext.i.i.i13 = sext i32 %level.0.i.i11 to i64
  %idx.neg.i.i.i14 = sub nsw i64 0, %idx.ext.i.i.i13
  %add.ptr.i.i.i15 = getelementptr inbounds %"struct.std::atomic.29", ptr %x.0.i.i12, i64 %idx.neg.i.i.i14
  %20 = load atomic i64, ptr %add.ptr.i.i.i15 acquire, align 8
  %atomic-temp.i.0.i.i.i.i16 = inttoptr i64 %20 to ptr
  %cond14.i.i17 = icmp eq i64 %20, 0
  br i1 %cond14.i.i17, label %lor.lhs.false14.i.i28, label %if.then.i.i18

if.then.i.i18:                                    ; preds = %while.body.i.i9
  %add.ptr.i17.i.i19 = getelementptr inbounds %"struct.std::atomic.29", ptr %atomic-temp.i.0.i.i.i.i16, i64 %idx.neg.i.i.i14
  %21 = load atomic i64, ptr %add.ptr.i17.i.i19 acquire, align 8
  %atomic-temp.i.0.i.i18.i.i20 = inttoptr i64 %21 to ptr
  call void @llvm.prefetch.p0(ptr %atomic-temp.i.0.i.i18.i.i20, i32 0, i32 1, i32 1)
  %cmp7.i.i21 = icmp eq ptr %last_bigger.0.i.i10, %atomic-temp.i.0.i.i.i.i16
  br i1 %cmp7.i.i21, label %lor.lhs.false14.i.i28, label %cond.end.i.i22

cond.end.i.i22:                                   ; preds = %if.then.i.i18
  %22 = load ptr, ptr %compare_.i.i6, align 8
  %arrayidx.i.i.i23 = getelementptr inbounds i8, ptr %atomic-temp.i.0.i.i.i.i16, i64 8
  %vtable10.i.i24 = load ptr, ptr %22, align 8
  %vfn11.i.i25 = getelementptr inbounds i8, ptr %vtable10.i.i24, i64 16
  %23 = load ptr, ptr %vfn11.i.i25, align 8
  %call12.i.i26 = call noundef i32 %23(ptr noundef nonnull align 8 dereferenceable(8) %22, ptr noundef nonnull %arrayidx.i.i.i23, ptr noundef nonnull align 8 dereferenceable(16) %key_decoded.i.i2)
  %cmp13.i.i27 = icmp eq i32 %call12.i.i26, 0
  br i1 %cmp13.i.i27, label %_ZN7rocksdb14InlineSkipListIRKNS_11MemTableRep13KeyComparatorEE8Iterator4SeekEPKc.exit40, label %lor.lhs.false14.i.i28

lor.lhs.false14.i.i28:                            ; preds = %cond.end.i.i22, %if.then.i.i18, %while.body.i.i9
  %cond21.i.i29 = phi i32 [ %call12.i.i26, %cond.end.i.i22 ], [ 1, %if.then.i.i18 ], [ 1, %while.body.i.i9 ]
  %cmp15.i.i30 = icmp sgt i32 %cond21.i.i29, 0
  %cmp16.i.i31 = icmp eq i32 %level.0.i.i11, 0
  %or.cond.i.i32 = and i1 %cmp16.i.i31, %cmp15.i.i30
  br i1 %or.cond.i.i32, label %_ZN7rocksdb14InlineSkipListIRKNS_11MemTableRep13KeyComparatorEE8Iterator4SeekEPKc.exit40, label %if.else.i.i33

if.else.i.i33:                                    ; preds = %lor.lhs.false14.i.i28
  %cmp18.i.i34 = icmp sgt i32 %cond21.i.i29, -1
  %last_bigger.1.i.i35 = select i1 %cmp18.i.i34, ptr %atomic-temp.i.0.i.i.i.i16, ptr %last_bigger.0.i.i10
  %dec.i.i36 = sext i1 %cmp18.i.i34 to i32
  %level.1.i.i37 = add nsw i32 %level.0.i.i11, %dec.i.i36
  %x.1.i.i38 = select i1 %cmp18.i.i34, ptr %x.0.i.i12, ptr %atomic-temp.i.0.i.i.i.i16
  br label %while.body.i.i9, !llvm.loop !11

_ZN7rocksdb14InlineSkipListIRKNS_11MemTableRep13KeyComparatorEE8Iterator4SeekEPKc.exit40: ; preds = %cond.end.i.i22, %lor.lhs.false14.i.i28
  call void @llvm.lifetime.end.p0(i64 16, ptr nonnull %key_decoded.i.i2)
  br label %if.end

if.end:                                           ; preds = %_ZN7rocksdb14InlineSkipListIRKNS_11MemTableRep13KeyComparatorEE8Iterator4SeekEPKc.exit40, %_ZN7rocksdb14InlineSkipListIRKNS_11MemTableRep13KeyComparatorEE8Iterator4SeekEPKc.exit
  %atomic-temp.i.0.i.i.i.i16.lcssa.sink = phi ptr [ %atomic-temp.i.0.i.i.i.i16, %_ZN7rocksdb14InlineSkipListIRKNS_11MemTableRep13KeyComparatorEE8Iterator4SeekEPKc.exit40 ], [ %atomic-temp.i.0.i.i.i.i, %_ZN7rocksdb14InlineSkipListIRKNS_11MemTableRep13KeyComparatorEE8Iterator4SeekEPKc.exit ]
  %node_.i39 = getelementptr inbounds i8, ptr %this, i64 16
  store ptr %atomic-temp.i.0.i.i.i.i16.lcssa.sink, ptr %node_.i39, align 8
  ret void
}